; Function Attrs: nounwind uwtable
define hidden void @zif_posix_getpwnam(ptr noundef %0, ptr noundef %1) #0 {
  %3 = alloca ptr, align 8
  %4 = getelementptr inbounds i8, ptr %0, i64 44
  %5 = load i32, ptr %4, align 4
  %cond = icmp eq i32 %5, 1
  br i1 %cond, label %7, label %6

6:                                                ; preds = %2
  tail call void @zend_wrong_parameters_count_error(i32 noundef 1, i32 noundef 1) #11
  br label %16

7:                                                ; preds = %2
  %8 = getelementptr inbounds i8, ptr %0, i64 80
  %9 = getelementptr inbounds i8, ptr %0, i64 88
  %10 = load i8, ptr %9, align 8
  %11 = icmp eq i8 %10, 6
  br i1 %11, label %.thread82, label %13

.thread82:                                        ; preds = %7
  %12 = load ptr, ptr %8, align 8
  store ptr %12, ptr %3, align 8
  br label %17

13:                                               ; preds = %7
  %14 = call zeroext i1 @zend_parse_arg_str_slow(ptr noundef nonnull %8, ptr noundef nonnull %3, i32 noundef 1) #11
  %15 = load ptr, ptr %3, align 8
  br i1 %14, label %17, label %16

16:                                               ; preds = %6, %13
  %.072 = phi i32 [ 0, %6 ], [ 4, %13 ]
  %.071 = phi ptr [ null, %6 ], [ %8, %13 ]
  %.070 = phi i32 [ 0, %6 ], [ 1, %13 ]
  %.069 = phi i32 [ 1, %6 ], [ 9, %13 ]
  call void @zend_wrong_parameter_error(i32 noundef %.069, i32 noundef %.070, ptr noundef null, i32 noundef %.072, ptr noundef %.071) #11
  br label %30

17:                                               ; preds = %13, %.thread82
  %.pn = phi ptr [ %12, %.thread82 ], [ %15, %13 ]
  %.2.ph = getelementptr inbounds i8, ptr %.pn, i64 24
  %18 = call ptr @getpwnam(ptr noundef nonnull %.2.ph)
  %19 = icmp eq ptr %18, null
  br i1 %19, label %20, label %24

20:                                               ; preds = %17
  %21 = tail call ptr @__errno_location() #12
  %22 = load i32, ptr %21, align 4
  store i32 %22, ptr @posix_globals, align 4
  %23 = getelementptr inbounds i8, ptr %1, i64 8
  store i32 2, ptr %23, align 8
  br label %30

24:                                               ; preds = %17
  %25 = call ptr @_zend_new_array_0() #11
  store ptr %25, ptr %1, align 8
  %26 = getelementptr inbounds i8, ptr %1, i64 8
  store i32 775, ptr %26, align 8
  %27 = call i32 @php_posix_passwd_to_array(ptr noundef nonnull %18, ptr noundef nonnull %1), !range !4
  %.not78 = icmp eq i32 %27, 0
  br i1 %.not78, label %28, label %30

28:                                               ; preds = %24
  %29 = load ptr, ptr %1, align 8
  call void @zend_array_destroy(ptr noundef %29) #11
  call void (ptr, i32, ptr, ...) @php_error_docref(ptr noundef null, i32 noundef 2, ptr noundef nonnull @.str.28) #11
  store i32 2, ptr %26, align 8
  br label %30

30:                                               ; preds = %28, %24, %20, %16
  ret void
}